target datalayout = "e-m:e-p270:32:32-p271:32:32-p272:64:64-i64:64-i128:128-f80:128-n8:16:32:64-S128"
target triple = "x86_64-pc-linux-gnu"

%struct._zend_array = type { %struct._zend_refcounted_h, %union.anon.0, i32, %union.anon.1, i32, i32, i32, i32, i64, ptr }
%struct._zend_refcounted_h = type { i32, %union.anon }
%union.anon = type { i32 }
%union.anon.0 = type { i32 }
%union.anon.1 = type { ptr }
%struct._zend_llist = type { ptr, ptr, i64, i64, ptr, i8, ptr }
%struct._zval_struct = type { %union._zend_value, %union.anon.3, %union.anon.6 }
%union._zend_value = type { i64 }
%union.anon.3 = type { i32 }
%union.anon.6 = type { i32 }
%struct._sapi_globals_struct = type { ptr, %struct.sapi_request_info, %struct.sapi_headers_struct, i64, i8, i8, %struct.stat, ptr, ptr, ptr, i64, i32, i8, double, %struct._zend_array, %struct._zval_struct, %struct._zend_fcall_info_cache, %struct.sapi_request_parse_body_context }
%struct.sapi_request_info = type { ptr, ptr, ptr, i64, ptr, ptr, ptr, ptr, i8, i8, i8, ptr, ptr, ptr, ptr, ptr, ptr, ptr, i32, i32, ptr, i32 }
%struct.sapi_headers_struct = type { %struct._zend_llist, i32, i8, ptr, ptr }
%struct.stat = type { i64, i64, i64, i32, i32, i32, i32, i64, i64, i64, i64, %struct.timespec, %struct.timespec, %struct.timespec, [3 x i64] }
%struct.timespec = type { i64, i64 }
%struct._zend_fcall_info_cache = type { ptr, ptr, ptr, ptr, ptr }
%struct.sapi_request_parse_body_context = type { i8, [5 x %struct.anon.7] }
%struct.anon.7 = type { i8, i64 }
%struct._php_stream = type { ptr, ptr, %struct._php_stream_filter_chain, %struct._php_stream_filter_chain, ptr, ptr, %struct._zval_struct, i16, [16 x i8], i32, ptr, ptr, ptr, ptr, i64, ptr, i64, i64, i64, i64, ptr }
%struct._php_stream_filter_chain = type { ptr, ptr, ptr }
%struct.php_stream_input = type { ptr, i64 }

@sapi_globals = external global %struct._sapi_globals_struct, align 8

; Function Attrs: nounwind uwtable
define internal i64 @php_stream_input_read(ptr noundef %0, ptr noundef %1, i64 noundef %2) #0 {
  %4 = alloca ptr, align 8
  %5 = alloca ptr, align 8
  %6 = alloca i64, align 8
  %7 = alloca ptr, align 8
  %8 = alloca i64, align 8
  %9 = alloca i64, align 8
  store ptr %0, ptr %4, align 8
  store ptr %1, ptr %5, align 8
  store i64 %2, ptr %6, align 8
  %10 = load ptr, ptr %4, align 8
  %11 = getelementptr inbounds %struct._php_stream, ptr %10, i32 0, i32 1
  %12 = load ptr, ptr %11, align 8
  store ptr %12, ptr %7, align 8
  %13 = load i8, ptr getelementptr inbounds (%struct._sapi_globals_struct, ptr @sapi_globals, i32 0, i32 4), align 8
  %14 = icmp ne i8 %13, 0
  br i1 %14, label %41, label %15

15:                                               ; preds = %3
  %16 = load i64, ptr getelementptr inbounds (%struct._sapi_globals_struct, ptr @sapi_globals, i32 0, i32 3), align 8
  %17 = load ptr, ptr %7, align 8
  %18 = getelementptr inbounds %struct.php_stream_input, ptr %17, i32 0, i32 1
  %19 = load i64, ptr %18, align 8
  %20 = load i64, ptr %6, align 8
  %21 = add i64 %19, %20
  %22 = icmp slt i64 %16, %21
  br i1 %22, label %23, label %41

23:                                               ; preds = %15
  %24 = load ptr, ptr %5, align 8
  %25 = load i64, ptr %6, align 8
  %26 = call i64 @sapi_read_post_block(ptr noundef %24, i64 noundef %25)
  store i64 %26, ptr %9, align 8
  %27 = load i64, ptr %9, align 8
  %28 = icmp ugt i64 %27, 0
  br i1 %28, label %29, label %40

29:                                               ; preds = %23
  %30 = load ptr, ptr %7, align 8
  %31 = getelementptr inbounds %struct.php_stream_input, ptr %30, i32 0, i32 0
  %32 = load ptr, ptr %31, align 8
  %33 = call i32 @_php_stream_seek(ptr noundef %32, i64 noundef 0, i32 noundef 2)
  %34 = load ptr, ptr %7, align 8
  %35 = getelementptr inbounds %struct.php_stream_input, ptr %34, i32 0, i32 0
  %36 = load ptr, ptr %35, align 8
  %37 = load ptr, ptr %5, align 8
  %38 = load i64, ptr %9, align 8
  %39 = call i64 @_php_stream_write(ptr noundef %36, ptr noundef %37, i64 noundef %38)
  br label %40

40:                                               ; preds = %29, %23
  br label %41

41:                                               ; preds = %40, %15, %3
  %42 = load ptr, ptr %7, align 8
  %43 = getelementptr inbounds %struct.php_stream_input, ptr %42, i32 0, i32 0
  %44 = load ptr, ptr %43, align 8
  %45 = getelementptr inbounds %struct._php_stream, ptr %44, i32 0, i32 2
  %46 = getelementptr inbounds %struct._php_stream_filter_chain, ptr %45, i32 0, i32 0
  %47 = load ptr, ptr %46, align 8
  %48 = icmp ne ptr %47, null
  br i1 %48, label %57, label %49

49:                                               ; preds = %41
  %50 = load ptr, ptr %7, align 8
  %51 = getelementptr inbounds %struct.php_stream_input, ptr %50, i32 0, i32 0
  %52 = load ptr, ptr %51, align 8
  %53 = load ptr, ptr %7, align 8
  %54 = getelementptr inbounds %struct.php_stream_input, ptr %53, i32 0, i32 1
  %55 = load i64, ptr %54, align 8
  %56 = call i32 @_php_stream_seek(ptr noundef %52, i64 noundef %55, i32 noundef 0)
  br label %57

57:                                               ; preds = %49, %41
  %58 = load ptr, ptr %7, align 8
  %59 = getelementptr inbounds %struct.php_stream_input, ptr %58, i32 0, i32 0
  %60 = load ptr, ptr %59, align 8
  %61 = load ptr, ptr %5, align 8
  %62 = load i64, ptr %6, align 8
  %63 = call i64 @_php_stream_read(ptr noundef %60, ptr noundef %61, i64 noundef %62)
  store i64 %63, ptr %8, align 8
  %64 = load i64, ptr %8, align 8
  %65 = icmp ne i64 %64, 0
  br i1 %65, label %66, label %69

66:                                               ; preds = %57
  %67 = load i64, ptr %8, align 8
  %68 = icmp eq i64 %67, -1
  br i1 %68, label %69, label %75

69:                                               ; preds = %66, %57
  %70 = load ptr, ptr %4, align 8
  %71 = getelementptr inbounds %struct._php_stream, ptr %70, i32 0, i32 7
  %72 = load i16, ptr %71, align 8
  %73 = and i16 %72, -9
  %74 = or i16 %73, 8
  store i16 %74, ptr %71, align 8
  br label %81

75:                                               ; preds = %66
  %76 = load i64, ptr %8, align 8
  %77 = load ptr, ptr %7, align 8
  %78 = getelementptr inbounds %struct.php_stream_input, ptr %77, i32 0, i32 1
  %79 = load i64, ptr %78, align 8
  %80 = add nsw i64 %79, %76
  store i64 %80, ptr %78, align 8
  br label %81

81:                                               ; preds = %75, %69
  %82 = load i64, ptr %8, align 8
  ret i64 %82
}