; Function Attrs: nounwind uwtable
define internal i64 @php_stream_input_read(ptr nocapture noundef %0, ptr noundef %1, i64 noundef %2) #0 {
  %4 = getelementptr inbounds i8, ptr %0, i64 8
  %5 = load ptr, ptr %4, align 8
  %6 = load i8, ptr getelementptr inbounds (%struct._sapi_globals_struct, ptr @sapi_globals, i64 0, i32 4), align 8
  %.not = icmp eq i8 %6, 0
  br i1 %.not, label %7, label %20

7:                                                ; preds = %3
  %8 = load i64, ptr getelementptr inbounds (%struct._sapi_globals_struct, ptr @sapi_globals, i64 0, i32 3), align 8
  %9 = getelementptr inbounds i8, ptr %5, i64 8
  %10 = load i64, ptr %9, align 8
  %11 = add i64 %10, %2
  %12 = icmp slt i64 %8, %11
  br i1 %12, label %13, label %20

13:                                               ; preds = %7
  %14 = tail call i64 @sapi_read_post_block(ptr noundef %1, i64 noundef %2) #12
  %.not23 = icmp eq i64 %14, 0
  br i1 %.not23, label %20, label %15

15:                                               ; preds = %13
  %16 = load ptr, ptr %5, align 8
  %17 = tail call i32 @_php_stream_seek(ptr noundef %16, i64 noundef 0, i32 noundef 2) #12
  %18 = load ptr, ptr %5, align 8
  %19 = tail call i64 @_php_stream_write(ptr noundef %18, ptr noundef %1, i64 noundef %14) #12
  br label %20

20:                                               ; preds = %13, %15, %7, %3
  %21 = load ptr, ptr %5, align 8
  %22 = getelementptr inbounds i8, ptr %21, i64 16
  %23 = load ptr, ptr %22, align 8
  %.not24 = icmp eq ptr %23, null
  br i1 %.not24, label %24, label %28

24:                                               ; preds = %20
  %25 = getelementptr inbounds i8, ptr %5, i64 8
  %26 = load i64, ptr %25, align 8
  %27 = tail call i32 @_php_stream_seek(ptr noundef nonnull %21, i64 noundef %26, i32 noundef 0) #12
  %.pre = load ptr, ptr %5, align 8
  br label %28

28:                                               ; preds = %24, %20
  %29 = phi ptr [ %.pre, %24 ], [ %21, %20 ]
  %30 = tail call i64 @_php_stream_read(ptr noundef %29, ptr noundef %1, i64 noundef %2) #12
  %31 = add i64 %30, 1
  %or.cond = icmp ult i64 %31, 2
  br i1 %or.cond, label %32, label %36

32:                                               ; preds = %28
  %33 = getelementptr inbounds i8, ptr %0, i64 96
  %34 = load i16, ptr %33, align 8
  %35 = or i16 %34, 8
  store i16 %35, ptr %33, align 8
  br label %40

36:                                               ; preds = %28
  %37 = getelementptr inbounds i8, ptr %5, i64 8
  %38 = load i64, ptr %37, align 8
  %39 = add nsw i64 %38, %30
  store i64 %39, ptr %37, align 8
  br label %40

40:                                               ; preds = %36, %32
  ret i64 %30
}